; Function Attrs: mustprogress nofree norecurse nosync nounwind willreturn memory(readwrite, inaccessiblemem: none) uwtable
define hidden void @_ZN19NullCheckEliminator16handle_NullCheckEP9NullCheck(ptr nocapture noundef nonnull align 8 dereferenceable(88) %0, ptr noundef %1) local_unnamed_addr #4 align 2 {
  %3 = getelementptr inbounds i8, ptr %1, i64 96
  %4 = load ptr, ptr %3, align 8
  %5 = getelementptr inbounds i8, ptr %0, i64 32
  %6 = load ptr, ptr %5, align 8
  %7 = getelementptr inbounds i8, ptr %4, i64 8
  %8 = load i32, ptr %7, align 8
  %9 = sext i32 %8 to i64
  %10 = load ptr, ptr %6, align 8
  %11 = lshr i64 %9, 6
  %12 = getelementptr inbounds i64, ptr %10, i64 %11
  %13 = load i64, ptr %12, align 8
  %14 = and i64 %9, 63
  %15 = shl nuw i64 1, %14
  %16 = and i64 %15, %13
  %.not = icmp eq i64 %16, 0
  %17 = getelementptr inbounds i8, ptr %1, i64 56
  %18 = load i32, ptr %17, align 8
  br i1 %.not, label %21, label %19

19:                                               ; preds = %2
  %20 = and i32 %18, -3
  store i32 %20, ptr %17, align 8
  br label %37

21:                                               ; preds = %2
  %22 = or i32 %18, 2
  store i32 %22, ptr %17, align 8
  %23 = getelementptr inbounds i8, ptr %1, i64 16
  %24 = load i32, ptr %23, align 8
  %25 = or i32 %24, 8
  store i32 %25, ptr %23, align 8
  %26 = load ptr, ptr %5, align 8
  %27 = load i32, ptr %7, align 8
  %28 = sext i32 %27 to i64
  %29 = and i64 %28, 63
  %30 = shl nuw i64 1, %29
  %31 = load ptr, ptr %26, align 8
  %32 = lshr i64 %28, 6
  %33 = getelementptr inbounds i64, ptr %31, i64 %32
  %34 = load i64, ptr %33, align 8
  %35 = or i64 %30, %34
  store i64 %35, ptr %33, align 8
  %36 = getelementptr inbounds i8, ptr %0, i64 80
  store ptr %1, ptr %36, align 8
  br label %37

37:                                               ; preds = %21, %19
  ret void
}